; Function Attrs: nounwind sspstrong uwtable
define internal void @rv64_veyron_v1_cpu_init(ptr noundef %obj) #3 {
entry:
  %call.i = tail call ptr @object_dynamic_cast_assert(ptr noundef %obj, ptr noundef nonnull @.str.250, ptr noundef nonnull @.str.282, i32 noundef 46, ptr noundef nonnull @__func__.RISCV_CPU) #14
  %call.i26 = tail call ptr @object_dynamic_cast_assert(ptr noundef %obj, ptr noundef nonnull @.str.250, ptr noundef nonnull @.str.282, i32 noundef 46, ptr noundef nonnull @__func__.RISCV_CPU) #14
  %misa_mxl.i = getelementptr inbounds nuw i8, ptr %call.i, i64 15184
  store i32 2, ptr %misa_mxl.i, align 16
  %misa_mxl_max.i = getelementptr inbounds nuw i8, ptr %call.i, i64 15188
  store i32 2, ptr %misa_mxl_max.i, align 4
  %misa_ext.i = getelementptr inbounds nuw i8, ptr %call.i, i64 15192
  store i32 1310916, ptr %misa_ext.i, align 8
  %misa_ext_mask.i = getelementptr inbounds nuw i8, ptr %call.i, i64 15196
  store i32 1310916, ptr %misa_ext_mask.i, align 4
  %priv_ver = getelementptr inbounds nuw i8, ptr %call.i, i64 15160
  store i64 2, ptr %priv_ver, align 8
  %cfg = getelementptr inbounds nuw i8, ptr %call.i26, i64 15312
  %mmu = getelementptr inbounds nuw i8, ptr %call.i26, i64 15472
  store i8 1, ptr %mmu, align 16
  %ext_zifencei = getelementptr inbounds nuw i8, ptr %call.i26, i64 15336
  store i8 1, ptr %ext_zifencei, align 8
  %ext_zicsr = getelementptr inbounds nuw i8, ptr %call.i26, i64 15338
  store i8 1, ptr %ext_zicsr, align 2
  %pmp = getelementptr inbounds nuw i8, ptr %call.i26, i64 15473
  store i8 1, ptr %pmp, align 1
  %ext_zicbom = getelementptr inbounds nuw i8, ptr %call.i26, i64 15339
  store i8 1, ptr %ext_zicbom, align 1
  %cbom_blocksize = getelementptr inbounds nuw i8, ptr %call.i26, i64 15468
  store i16 64, ptr %cbom_blocksize, align 4
  %cboz_blocksize = getelementptr inbounds nuw i8, ptr %call.i26, i64 15470
  store i16 64, ptr %cboz_blocksize, align 2
  %ext_zicboz = getelementptr inbounds nuw i8, ptr %call.i26, i64 15340
  store i8 1, ptr %ext_zicboz, align 4
  %ext_smaia = getelementptr inbounds nuw i8, ptr %call.i26, i64 15384
  store i8 1, ptr %ext_smaia, align 8
  %ext_ssaia = getelementptr inbounds nuw i8, ptr %call.i26, i64 15385
  store i8 1, ptr %ext_ssaia, align 1
  %ext_sscofpmf = getelementptr inbounds nuw i8, ptr %call.i26, i64 15386
  store i8 1, ptr %ext_sscofpmf, align 2
  %ext_sstc = getelementptr inbounds nuw i8, ptr %call.i26, i64 15346
  store i8 1, ptr %ext_sstc, align 2
  %ext_svinval = getelementptr inbounds nuw i8, ptr %call.i26, i64 15348
  store i8 1, ptr %ext_svinval, align 4
  %ext_svnapot = getelementptr inbounds nuw i8, ptr %call.i26, i64 15349
  store i8 1, ptr %ext_svnapot, align 1
  %ext_svpbmt = getelementptr inbounds nuw i8, ptr %call.i26, i64 15350
  store i8 1, ptr %ext_svpbmt, align 2
  %ext_smstateen = getelementptr inbounds nuw i8, ptr %call.i26, i64 15345
  store i8 1, ptr %ext_smstateen, align 1
  store i8 1, ptr %cfg, align 16
  %ext_zbb = getelementptr inbounds nuw i8, ptr %call.i26, i64 15313
  store i8 1, ptr %ext_zbb, align 1
  %ext_zbc = getelementptr inbounds nuw i8, ptr %call.i26, i64 15314
  store i8 1, ptr %ext_zbc, align 2
  %ext_zbs = getelementptr inbounds nuw i8, ptr %call.i26, i64 15318
  store i8 1, ptr %ext_zbs, align 2
  %ext_XVentanaCondOps = getelementptr inbounds nuw i8, ptr %call.i26, i64 15427
  store i8 1, ptr %ext_XVentanaCondOps, align 1
  %mvendorid = getelementptr inbounds nuw i8, ptr %call.i26, i64 15392
  store i32 1567, ptr %mvendorid, align 16
  %marchid = getelementptr inbounds nuw i8, ptr %call.i26, i64 15400
  store i64 -9223372036854710272, ptr %marchid, align 8
  %mimpid = getelementptr inbounds nuw i8, ptr %call.i26, i64 15408
  store i64 273, ptr %mimpid, align 16
  ret void
}